target datalayout = "e-m:e-p270:32:32-p271:32:32-p272:64:64-i64:64-i128:128-f80:128-n8:16:32:64-S128"
target triple = "x86_64-pc-linux-gnu"

%"class.std::__cxx11::basic_string" = type { %"struct.std::__cxx11::basic_string<char>::_Alloc_hider", i64, %union.anon }
%"struct.std::__cxx11::basic_string<char>::_Alloc_hider" = type { ptr }
%union.anon = type { i64, [8 x i8] }
%"struct.(anonymous namespace)::ExchangeWithCallback" = type { %"class.std::vector", i64, i8, %"class.std::map" }
%"class.std::vector" = type { %"struct.std::_Vector_base" }
%"struct.std::_Vector_base" = type { %"struct.std::_Vector_base<std::unique_ptr<(anonymous namespace)::Event>, std::allocator<std::unique_ptr<(anonymous namespace)::Event>>>::_Vector_impl" }
%"struct.std::_Vector_base<std::unique_ptr<(anonymous namespace)::Event>, std::allocator<std::unique_ptr<(anonymous namespace)::Event>>>::_Vector_impl" = type { %"struct.std::_Vector_base<std::unique_ptr<(anonymous namespace)::Event>, std::allocator<std::unique_ptr<(anonymous namespace)::Event>>>::_Vector_impl_data" }
%"struct.std::_Vector_base<std::unique_ptr<(anonymous namespace)::Event>, std::allocator<std::unique_ptr<(anonymous namespace)::Event>>>::_Vector_impl_data" = type { ptr, ptr, ptr }
%"class.std::map" = type { %"class.std::_Rb_tree" }
%"class.std::_Rb_tree" = type { %"struct.std::_Rb_tree<int, std::pair<const int, PROJ_NETWORK_HANDLE *>, std::_Select1st<std::pair<const int, PROJ_NETWORK_HANDLE *>>, std::less<int>>::_Rb_tree_impl" }
%"struct.std::_Rb_tree<int, std::pair<const int, PROJ_NETWORK_HANDLE *>, std::_Select1st<std::pair<const int, PROJ_NETWORK_HANDLE *>>, std::less<int>>::_Rb_tree_impl" = type { [8 x i8], %"struct.std::_Rb_tree_header" }
%"struct.std::_Rb_tree_header" = type { %"struct.std::_Rb_tree_node_base", i64 }
%"struct.std::_Rb_tree_node_base" = type { i32, ptr, ptr, ptr }
%"struct.(anonymous namespace)::Event" = type { ptr, %"class.std::__cxx11::basic_string", ptr }
%"struct.(anonymous namespace)::CloseEvent" = type <{ %"struct.(anonymous namespace)::Event", i32, [4 x i8] }>
%"class.std::unique_ptr.65" = type { %"struct.std::__uniq_ptr_data.66" }
%"struct.std::__uniq_ptr_data.66" = type { %"class.std::__uniq_ptr_impl.67" }
%"class.std::__uniq_ptr_impl.67" = type { %"class.std::tuple.68" }
%"class.std::tuple.68" = type { %"struct.std::_Tuple_impl.69" }
%"struct.std::_Tuple_impl.69" = type { %"struct.std::_Head_base.72" }
%"struct.std::_Head_base.72" = type { ptr }

@stderr = external global ptr, align 8
@_ZTIN12_GLOBAL__N_15EventE = internal constant { ptr, ptr } { ptr getelementptr inbounds (ptr, ptr @_ZTVN10__cxxabiv117__class_type_infoE, i64 2), ptr @_ZTSN12_GLOBAL__N_15EventE }, align 8
@.str.109 = private unnamed_addr constant [28 x i8] c"unexpected call to close()\0A\00", align 1
@_ZTIN12_GLOBAL__N_110CloseEventE = internal constant { ptr, ptr, ptr } { ptr getelementptr inbounds (ptr, ptr @_ZTVN10__cxxabiv120__si_class_type_infoE, i64 2), ptr @_ZTSN12_GLOBAL__N_110CloseEventE, ptr @_ZTIN12_GLOBAL__N_15EventE }, align 8
@.str.110 = private unnamed_addr constant [54 x i8] c"unexpected call to close(). Was expecting a %s event\0A\00", align 1
@.str.111 = private unnamed_addr constant [33 x i8] c"close() called with bad context\0A\00", align 1
@.str.112 = private unnamed_addr constant [32 x i8] c"close() called with bad handle\0A\00", align 1

; Function Attrs: mustprogress nounwind uwtable
define internal noundef nonnull align 8 dereferenceable(8) ptr @_ZNSt10_Head_baseILm0EPN12_GLOBAL__N_15EventELb0EE7_M_headERKS3_(ptr noundef nonnull align 8 dereferenceable(8) %0) #5 align 2 {
  %2 = alloca ptr, align 8
  store ptr %0, ptr %2, align 8, !tbaa !359
  %3 = load ptr, ptr %2, align 8, !tbaa !359
  %4 = getelementptr inbounds nuw %"struct.std::_Head_base.72", ptr %3, i32 0, i32 0
  ret ptr %4
}

; Function Attrs: mustprogress nounwind uwtable
define internal noundef nonnull align 8 dereferenceable(8) ptr @_ZNSt11_Tuple_implILm0EJPN12_GLOBAL__N_15EventESt14default_deleteIS1_EEE7_M_headERKS5_(ptr noundef nonnull align 8 dereferenceable(8) %0) #5 align 2 {
  %2 = alloca ptr, align 8
  store ptr %0, ptr %2, align 8, !tbaa !357
  %3 = load ptr, ptr %2, align 8, !tbaa !357
  %4 = call noundef nonnull align 8 dereferenceable(8) ptr @_ZNSt10_Head_baseILm0EPN12_GLOBAL__N_15EventELb0EE7_M_headERKS3_(ptr noundef nonnull align 8 dereferenceable(8) %3) #3
  ret ptr %4
}

; Function Attrs: mustprogress nounwind uwtable
define internal noundef nonnull align 8 dereferenceable(8) ptr @_ZSt12__get_helperILm0EPN12_GLOBAL__N_15EventEJSt14default_deleteIS1_EEERKT0_RKSt11_Tuple_implIXT_EJS5_DpT1_EE(ptr noundef nonnull align 8 dereferenceable(8) %0) #5 {
  %2 = alloca ptr, align 8
  store ptr %0, ptr %2, align 8, !tbaa !357
  %3 = load ptr, ptr %2, align 8, !tbaa !357
  %4 = call noundef nonnull align 8 dereferenceable(8) ptr @_ZNSt11_Tuple_implILm0EJPN12_GLOBAL__N_15EventESt14default_deleteIS1_EEE7_M_headERKS5_(ptr noundef nonnull align 8 dereferenceable(8) %3) #3
  ret ptr %4
}

; Function Attrs: mustprogress nounwind uwtable
define internal noundef nonnull align 8 dereferenceable(8) ptr @_ZSt3getILm0EJPN12_GLOBAL__N_15EventESt14default_deleteIS1_EEERKNSt13tuple_elementIXT_ESt5tupleIJDpT0_EEE4typeERKS9_(ptr noundef nonnull align 8 dereferenceable(8) %0) #5 {
  %2 = alloca ptr, align 8
  store ptr %0, ptr %2, align 8, !tbaa !355
  %3 = load ptr, ptr %2, align 8, !tbaa !355
  %4 = call noundef nonnull align 8 dereferenceable(8) ptr @_ZSt12__get_helperILm0EPN12_GLOBAL__N_15EventEJSt14default_deleteIS1_EEERKT0_RKSt11_Tuple_implIXT_EJS5_DpT1_EE(ptr noundef nonnull align 8 dereferenceable(8) %3) #3
  ret ptr %4
}

; Function Attrs: mustprogress nounwind uwtable
define available_externally noundef ptr @_ZNKSt7__cxx1112basic_stringIcSt11char_traitsIcESaIcEE7_M_dataEv(ptr noundef nonnull align 8 dereferenceable(32) %0) #5 align 2 {
  %2 = alloca ptr, align 8
  store ptr %0, ptr %2, align 8, !tbaa !11
  %3 = load ptr, ptr %2, align 8
  %4 = getelementptr inbounds nuw %"class.std::__cxx11::basic_string", ptr %3, i32 0, i32 0
  %5 = getelementptr inbounds nuw %"struct.std::__cxx11::basic_string<char>::_Alloc_hider", ptr %4, i32 0, i32 0
  %6 = load ptr, ptr %5, align 8, !tbaa !87
  ret ptr %6
}

; Function Attrs: mustprogress nounwind uwtable
define internal noundef ptr @_ZNKSt15__uniq_ptr_implIN12_GLOBAL__N_15EventESt14default_deleteIS1_EE6_M_ptrEv(ptr noundef nonnull align 8 dereferenceable(8) %0) #5 align 2 {
  %2 = alloca ptr, align 8
  store ptr %0, ptr %2, align 8, !tbaa !351
  %3 = load ptr, ptr %2, align 8
  %4 = getelementptr inbounds nuw %"class.std::__uniq_ptr_impl.67", ptr %3, i32 0, i32 0
  %5 = call noundef nonnull align 8 dereferenceable(8) ptr @_ZSt3getILm0EJPN12_GLOBAL__N_15EventESt14default_deleteIS1_EEERKNSt13tuple_elementIXT_ESt5tupleIJDpT0_EEE4typeERKS9_(ptr noundef nonnull align 8 dereferenceable(8) %4) #3
  %6 = load ptr, ptr %5, align 8, !tbaa !353
  ret ptr %6
}

; Function Attrs: mustprogress nounwind uwtable
define available_externally noundef ptr @_ZNKSt7__cxx1112basic_stringIcSt11char_traitsIcESaIcEE5c_strEv(ptr noundef nonnull align 8 dereferenceable(32) %0) #5 align 2 {
  %2 = alloca ptr, align 8
  store ptr %0, ptr %2, align 8, !tbaa !11
  %3 = load ptr, ptr %2, align 8
  %4 = call noundef ptr @_ZNKSt7__cxx1112basic_stringIcSt11char_traitsIcESaIcEE7_M_dataEv(ptr noundef nonnull align 8 dereferenceable(32) %3)
  ret ptr %4
}

; Function Attrs: mustprogress nounwind uwtable
define internal noundef ptr @_ZNKSt10unique_ptrIN12_GLOBAL__N_15EventESt14default_deleteIS1_EEptEv(ptr noundef nonnull align 8 dereferenceable(8) %0) #5 align 2 {
  %2 = alloca ptr, align 8
  store ptr %0, ptr %2, align 8, !tbaa !347
  %3 = load ptr, ptr %2, align 8
  %4 = call noundef ptr @_ZNKSt10unique_ptrIN12_GLOBAL__N_15EventESt14default_deleteIS1_EE3getEv(ptr noundef nonnull align 8 dereferenceable(8) %3) #3
  ret ptr %4
}

; Function Attrs: mustprogress nounwind uwtable
define internal noundef ptr @_ZNKSt10unique_ptrIN12_GLOBAL__N_15EventESt14default_deleteIS1_EE3getEv(ptr noundef nonnull align 8 dereferenceable(8) %0) #5 align 2 {
  %2 = alloca ptr, align 8
  store ptr %0, ptr %2, align 8, !tbaa !347
  %3 = load ptr, ptr %2, align 8
  %4 = getelementptr inbounds nuw %"class.std::unique_ptr.65", ptr %3, i32 0, i32 0
  %5 = call noundef ptr @_ZNKSt15__uniq_ptr_implIN12_GLOBAL__N_15EventESt14default_deleteIS1_EE6_M_ptrEv(ptr noundef nonnull align 8 dereferenceable(8) %4) #3
  ret ptr %5
}

; Function Attrs: mustprogress nounwind uwtable
define internal noundef nonnull align 8 dereferenceable(8) ptr @_ZNSt6vectorISt10unique_ptrIN12_GLOBAL__N_15EventESt14default_deleteIS2_EESaIS5_EEixEm(ptr noundef nonnull align 8 dereferenceable(24) %0, i64 noundef %1) #5 align 2 {
  %3 = alloca ptr, align 8
  %4 = alloca i64, align 8
  store ptr %0, ptr %3, align 8, !tbaa !295
  store i64 %1, ptr %4, align 8, !tbaa !84
  %5 = load ptr, ptr %3, align 8
  %6 = getelementptr inbounds nuw %"struct.std::_Vector_base", ptr %5, i32 0, i32 0
  %7 = getelementptr inbounds nuw %"struct.std::_Vector_base<std::unique_ptr<(anonymous namespace)::Event>, std::allocator<std::unique_ptr<(anonymous namespace)::Event>>>::_Vector_impl_data", ptr %6, i32 0, i32 0
  %8 = load ptr, ptr %7, align 8, !tbaa !327
  %9 = load i64, ptr %4, align 8, !tbaa !84
  %10 = getelementptr inbounds nuw %"class.std::unique_ptr.65", ptr %8, i64 %9
  ret ptr %10
}

; Function Attrs: mustprogress nounwind uwtable
define internal noundef i64 @_ZNKSt6vectorISt10unique_ptrIN12_GLOBAL__N_15EventESt14default_deleteIS2_EESaIS5_EE4sizeEv(ptr noundef nonnull align 8 dereferenceable(24) %0) #5 align 2 {
  %2 = alloca ptr, align 8
  store ptr %0, ptr %2, align 8, !tbaa !295
  %3 = load ptr, ptr %2, align 8
  %4 = getelementptr inbounds nuw %"struct.std::_Vector_base", ptr %3, i32 0, i32 0
  %5 = getelementptr inbounds nuw %"struct.std::_Vector_base<std::unique_ptr<(anonymous namespace)::Event>, std::allocator<std::unique_ptr<(anonymous namespace)::Event>>>::_Vector_impl_data", ptr %4, i32 0, i32 1
  %6 = load ptr, ptr %5, align 8, !tbaa !297
  %7 = getelementptr inbounds nuw %"struct.std::_Vector_base", ptr %3, i32 0, i32 0
  %8 = getelementptr inbounds nuw %"struct.std::_Vector_base<std::unique_ptr<(anonymous namespace)::Event>, std::allocator<std::unique_ptr<(anonymous namespace)::Event>>>::_Vector_impl_data", ptr %7, i32 0, i32 0
  %9 = load ptr, ptr %8, align 8, !tbaa !327
  %10 = ptrtoint ptr %6 to i64
  %11 = ptrtoint ptr %9 to i64
  %12 = sub i64 %10, %11
  %13 = sdiv exact i64 %12, 8
  ret i64 %13
}

; Function Attrs: mustprogress uwtable
define internal void @_ZN12_GLOBAL__N_19close_cbkEP6pj_ctxP19PROJ_NETWORK_HANDLEPv(ptr noundef %0, ptr noundef %1, ptr noundef %2) #6 {
  %4 = alloca ptr, align 8
  %5 = alloca ptr, align 8
  %6 = alloca ptr, align 8
  %7 = alloca ptr, align 8
  %8 = alloca i32, align 4
  %9 = alloca ptr, align 8
  store ptr %0, ptr %4, align 8, !tbaa !109
  store ptr %1, ptr %5, align 8, !tbaa !278
  store ptr %2, ptr %6, align 8, !tbaa !24
  call void @llvm.lifetime.start.p0(i64 8, ptr %7) #3
  %10 = load ptr, ptr %6, align 8, !tbaa !24
  store ptr %10, ptr %7, align 8, !tbaa !254
  %11 = load ptr, ptr %7, align 8, !tbaa !254
  %12 = getelementptr inbounds nuw %"struct.(anonymous namespace)::ExchangeWithCallback", ptr %11, i32 0, i32 2
  %13 = load i8, ptr %12, align 8, !tbaa !272, !range !101, !noundef !102
  %14 = trunc i8 %13 to i1
  br i1 %14, label %15, label %16

15:                                               ; preds = %3
  store i32 1, ptr %8, align 4
  br label %94

16:                                               ; preds = %3
  %17 = load ptr, ptr %7, align 8, !tbaa !254
  %18 = getelementptr inbounds nuw %"struct.(anonymous namespace)::ExchangeWithCallback", ptr %17, i32 0, i32 1
  %19 = load i64, ptr %18, align 8, !tbaa !256
  %20 = load ptr, ptr %7, align 8, !tbaa !254
  %21 = getelementptr inbounds nuw %"struct.(anonymous namespace)::ExchangeWithCallback", ptr %20, i32 0, i32 0
  %22 = call noundef i64 @_ZNKSt6vectorISt10unique_ptrIN12_GLOBAL__N_15EventESt14default_deleteIS2_EESaIS5_EE4sizeEv(ptr noundef nonnull align 8 dereferenceable(24) %21) #3
  %23 = icmp uge i64 %19, %22
  br i1 %23, label %24, label %29

24:                                               ; preds = %16
  %25 = load ptr, ptr @stderr, align 8, !tbaa !103
  %26 = call i32 (ptr, ptr, ...) @fprintf(ptr noundef %25, ptr noundef @.str.109) #3
  %27 = load ptr, ptr %7, align 8, !tbaa !254
  %28 = getelementptr inbounds nuw %"struct.(anonymous namespace)::ExchangeWithCallback", ptr %27, i32 0, i32 2
  store i8 1, ptr %28, align 8, !tbaa !272
  store i32 1, ptr %8, align 4
  br label %94

29:                                               ; preds = %16
  call void @llvm.lifetime.start.p0(i64 8, ptr %9) #3
  %30 = load ptr, ptr %7, align 8, !tbaa !254
  %31 = getelementptr inbounds nuw %"struct.(anonymous namespace)::ExchangeWithCallback", ptr %30, i32 0, i32 0
  %32 = load ptr, ptr %7, align 8, !tbaa !254
  %33 = getelementptr inbounds nuw %"struct.(anonymous namespace)::ExchangeWithCallback", ptr %32, i32 0, i32 1
  %34 = load i64, ptr %33, align 8, !tbaa !256
  %35 = call noundef nonnull align 8 dereferenceable(8) ptr @_ZNSt6vectorISt10unique_ptrIN12_GLOBAL__N_15EventESt14default_deleteIS2_EESaIS5_EEixEm(ptr noundef nonnull align 8 dereferenceable(24) %31, i64 noundef %34) #3
  %36 = call noundef ptr @_ZNKSt10unique_ptrIN12_GLOBAL__N_15EventESt14default_deleteIS1_EE3getEv(ptr noundef nonnull align 8 dereferenceable(8) %35) #3
  %37 = icmp eq ptr %36, null
  br i1 %37, label %40, label %38

38:                                               ; preds = %29
  %39 = call ptr @__dynamic_cast(ptr %36, ptr @_ZTIN12_GLOBAL__N_15EventE, ptr @_ZTIN12_GLOBAL__N_110CloseEventE, i64 0) #3
  br label %41

40:                                               ; preds = %29
  br label %41

41:                                               ; preds = %40, %38
  %42 = phi ptr [ %39, %38 ], [ null, %40 ]
  store ptr %42, ptr %9, align 8, !tbaa !280
  %43 = load ptr, ptr %9, align 8, !tbaa !280
  %44 = icmp ne ptr %43, null
  br i1 %44, label %59, label %45

45:                                               ; preds = %41
  %46 = load ptr, ptr @stderr, align 8, !tbaa !103
  %47 = load ptr, ptr %7, align 8, !tbaa !254
  %48 = getelementptr inbounds nuw %"struct.(anonymous namespace)::ExchangeWithCallback", ptr %47, i32 0, i32 0
  %49 = load ptr, ptr %7, align 8, !tbaa !254
  %50 = getelementptr inbounds nuw %"struct.(anonymous namespace)::ExchangeWithCallback", ptr %49, i32 0, i32 1
  %51 = load i64, ptr %50, align 8, !tbaa !256
  %52 = call noundef nonnull align 8 dereferenceable(8) ptr @_ZNSt6vectorISt10unique_ptrIN12_GLOBAL__N_15EventESt14default_deleteIS2_EESaIS5_EEixEm(ptr noundef nonnull align 8 dereferenceable(24) %48, i64 noundef %51) #3
  %53 = call noundef ptr @_ZNKSt10unique_ptrIN12_GLOBAL__N_15EventESt14default_deleteIS1_EEptEv(ptr noundef nonnull align 8 dereferenceable(8) %52) #3
  %54 = getelementptr inbounds nuw %"struct.(anonymous namespace)::Event", ptr %53, i32 0, i32 1
  %55 = call noundef ptr @_ZNKSt7__cxx1112basic_stringIcSt11char_traitsIcESaIcEE5c_strEv(ptr noundef nonnull align 8 dereferenceable(32) %54) #3
  %56 = call i32 (ptr, ptr, ...) @fprintf(ptr noundef %46, ptr noundef @.str.110, ptr noundef %55) #3
  %57 = load ptr, ptr %7, align 8, !tbaa !254
  %58 = getelementptr inbounds nuw %"struct.(anonymous namespace)::ExchangeWithCallback", ptr %57, i32 0, i32 2
  store i8 1, ptr %58, align 8, !tbaa !272
  store i32 1, ptr %8, align 4
  br label %93

59:                                               ; preds = %41
  %60 = load ptr, ptr %9, align 8, !tbaa !280
  %61 = getelementptr inbounds nuw %"struct.(anonymous namespace)::Event", ptr %60, i32 0, i32 2
  %62 = load ptr, ptr %61, align 8, !tbaa !230
  %63 = load ptr, ptr %4, align 8, !tbaa !109
  %64 = icmp ne ptr %62, %63
  br i1 %64, label %65, label %70

65:                                               ; preds = %59
  %66 = load ptr, ptr @stderr, align 8, !tbaa !103
  %67 = call i32 (ptr, ptr, ...) @fprintf(ptr noundef %66, ptr noundef @.str.111) #3
  %68 = load ptr, ptr %7, align 8, !tbaa !254
  %69 = getelementptr inbounds nuw %"struct.(anonymous namespace)::ExchangeWithCallback", ptr %68, i32 0, i32 2
  store i8 1, ptr %69, align 8, !tbaa !272
  store i32 1, ptr %8, align 4
  br label %93

70:                                               ; preds = %59
  %71 = load ptr, ptr %7, align 8, !tbaa !254
  %72 = getelementptr inbounds nuw %"struct.(anonymous namespace)::ExchangeWithCallback", ptr %71, i32 0, i32 3
  %73 = load ptr, ptr %9, align 8, !tbaa !280
  %74 = getelementptr inbounds nuw %"struct.(anonymous namespace)::CloseEvent", ptr %73, i32 0, i32 1
  %75 = call noundef nonnull align 8 dereferenceable(8) ptr @_ZNSt3mapIiP19PROJ_NETWORK_HANDLESt4lessIiESaISt4pairIKiS1_EEEixERS5_(ptr noundef nonnull align 8 dereferenceable(48) %72, ptr noundef nonnull align 4 dereferenceable(4) %74)
  %76 = load ptr, ptr %75, align 8, !tbaa !278
  %77 = load ptr, ptr %5, align 8, !tbaa !278
  %78 = icmp ne ptr %76, %77
  br i1 %78, label %79, label %84

79:                                               ; preds = %70
  %80 = load ptr, ptr @stderr, align 8, !tbaa !103
  %81 = call i32 (ptr, ptr, ...) @fprintf(ptr noundef %80, ptr noundef @.str.112) #3
  %82 = load ptr, ptr %7, align 8, !tbaa !254
  %83 = getelementptr inbounds nuw %"struct.(anonymous namespace)::ExchangeWithCallback", ptr %82, i32 0, i32 2
  store i8 1, ptr %83, align 8, !tbaa !272
  store i32 1, ptr %8, align 4
  br label %93

84:                                               ; preds = %70
  %85 = load ptr, ptr %7, align 8, !tbaa !254
  %86 = getelementptr inbounds nuw %"struct.(anonymous namespace)::ExchangeWithCallback", ptr %85, i32 0, i32 1
  %87 = load i64, ptr %86, align 8, !tbaa !256
  %88 = add i64 %87, 1
  store i64 %88, ptr %86, align 8, !tbaa !256
  %89 = load ptr, ptr %5, align 8, !tbaa !278
  %90 = icmp eq ptr %89, null
  br i1 %90, label %92, label %91

91:                                               ; preds = %84
  call void @_ZdlPvm(ptr noundef %89, i64 noundef 1) #21
  br label %92

92:                                               ; preds = %91, %84
  store i32 0, ptr %8, align 4
  br label %93

93:                                               ; preds = %92, %79, %65, %45
  call void @llvm.lifetime.end.p0(i64 8, ptr %9) #3
  br label %94

94:                                               ; preds = %93, %24, %15
  call void @llvm.lifetime.end.p0(i64 8, ptr %7) #3
  %95 = load i32, ptr %8, align 4
  switch i32 %95, label %97 [
    i32 0, label %96
    i32 1, label %96
  ]

96:                                               ; preds = %94, %94
  ret void

97:                                               ; preds = %94
  unreachable
}