; Function Attrs: mustprogress uwtable
define internal void @_ZN12_GLOBAL__N_19close_cbkEP6pj_ctxP19PROJ_NETWORK_HANDLEPv(ptr noundef readnone %0, ptr noundef %1, ptr noundef %2) #4 {
  %4 = getelementptr inbounds nuw i8, ptr %2, i64 32
  %5 = load i8, ptr %4, align 8, !tbaa !203, !range !45, !noundef !46
  %6 = trunc nuw i8 %5 to i1
  br i1 %6, label %46, label %7

7:                                                ; preds = %3
  %8 = getelementptr inbounds nuw i8, ptr %2, i64 24
  %9 = load i64, ptr %8, align 8, !tbaa !133
  %.val = load ptr, ptr %2, align 8, !tbaa !100
  %10 = getelementptr i8, ptr %2, i64 8
  %.val25 = load ptr, ptr %10, align 8, !tbaa !93
  %11 = ptrtoint ptr %.val25 to i64
  %12 = ptrtoint ptr %.val to i64
  %13 = sub i64 %11, %12
  %14 = ashr exact i64 %13, 3
  %.not = icmp ult i64 %9, %14
  br i1 %.not, label %18, label %15

15:                                               ; preds = %7
  %16 = load ptr, ptr @stderr, align 8, !tbaa !30
  %17 = tail call i64 @fwrite(ptr nonnull @.str.109, i64 27, i64 1, ptr %16) #33
  store i8 1, ptr %4, align 8, !tbaa !203
  br label %46

18:                                               ; preds = %7
  %19 = getelementptr inbounds nuw %"class.std::unique_ptr.65", ptr %.val, i64 %9
  %.val28 = load ptr, ptr %19, align 8, !tbaa !106
  %20 = icmp eq ptr %.val28, null
  br i1 %20, label %.thread, label %21

21:                                               ; preds = %18
  %22 = tail call ptr @__dynamic_cast(ptr nonnull %.val28, ptr nonnull @_ZTIN12_GLOBAL__N_15EventE, ptr nonnull @_ZTIN12_GLOBAL__N_110CloseEventE, i64 0) #29
  %.not22 = icmp eq ptr %22, null
  br i1 %.not22, label %.thread, label %27

.thread:                                          ; preds = %18, %21
  %23 = load ptr, ptr @stderr, align 8, !tbaa !30
  %24 = getelementptr inbounds nuw i8, ptr %.val28, i64 8
  %25 = load ptr, ptr %24, align 8, !tbaa !12
  %26 = tail call i32 (ptr, ptr, ...) @fprintf(ptr noundef %23, ptr noundef nonnull @.str.110, ptr noundef %25) #34
  store i8 1, ptr %4, align 8, !tbaa !203
  br label %46

27:                                               ; preds = %21
  %28 = getelementptr inbounds nuw i8, ptr %22, i64 40
  %29 = load ptr, ptr %28, align 8, !tbaa !79
  %.not23 = icmp eq ptr %29, %0
  br i1 %.not23, label %33, label %30

30:                                               ; preds = %27
  %31 = load ptr, ptr @stderr, align 8, !tbaa !30
  %32 = tail call i64 @fwrite(ptr nonnull @.str.111, i64 32, i64 1, ptr %31) #33
  store i8 1, ptr %4, align 8, !tbaa !203
  br label %46

33:                                               ; preds = %27
  %34 = getelementptr inbounds nuw i8, ptr %2, i64 40
  %35 = getelementptr inbounds nuw i8, ptr %22, i64 48
  %36 = tail call noundef nonnull align 8 dereferenceable(8) ptr @_ZNSt3mapIiP19PROJ_NETWORK_HANDLESt4lessIiESaISt4pairIKiS1_EEEixERS5_(ptr noundef nonnull align 8 dereferenceable(48) %34, ptr noundef nonnull align 4 dereferenceable(4) %35)
  %37 = load ptr, ptr %36, align 8, !tbaa !205
  %.not24 = icmp eq ptr %37, %1
  br i1 %.not24, label %41, label %38

38:                                               ; preds = %33
  %39 = load ptr, ptr @stderr, align 8, !tbaa !30
  %40 = tail call i64 @fwrite(ptr nonnull @.str.112, i64 31, i64 1, ptr %39) #33
  store i8 1, ptr %4, align 8, !tbaa !203
  br label %46

41:                                               ; preds = %33
  %42 = load i64, ptr %8, align 8, !tbaa !133
  %43 = add i64 %42, 1
  store i64 %43, ptr %8, align 8, !tbaa !133
  %44 = icmp eq ptr %1, null
  br i1 %44, label %46, label %45

45:                                               ; preds = %41
  tail call void @_ZdlPvm(ptr noundef nonnull %1, i64 noundef 1) #31
  br label %46

46:                                               ; preds = %.thread, %30, %38, %45, %41, %3, %15
  ret void
}